target datalayout = "e-m:e-p270:32:32-p271:32:32-p272:64:64-i64:64-i128:128-f80:128-n8:16:32:64-S128"
target triple = "x86_64-pc-linux-gnu"

%union.pthread_mutex_t = type { %struct.__pthread_mutex_s }
%struct.__pthread_mutex_s = type { i32, i32, i32, i32, i32, i16, i16, %struct.__pthread_internal_list }
%struct.__pthread_internal_list = type { ptr, ptr }
%struct.pmix_tma = type { ptr, ptr, ptr, ptr, ptr, ptr, ptr, ptr }
%struct.pmix_pointer_array_t = type { %struct.pmix_object_t, i32, i32, i32, i32, i32, ptr, ptr }
%struct.pmix_object_t = type { %union.pthread_mutex_t, ptr, i32, %struct.pmix_tma }
%struct.pmix_mca_base_var_t = type { %struct.pmix_object_t, i32, i32, i32, ptr, ptr, ptr, ptr, %struct.pmix_value_array_t, i32, i32, i32, ptr, ptr, ptr, i32, ptr, ptr }
%struct.pmix_value_array_t = type { %struct.pmix_object_t, ptr, i64, i64, i64 }
%struct.pmix_mca_base_var_file_value_t = type { %struct.pmix_list_item_t, ptr, ptr, ptr, i32 }
%struct.pmix_list_item_t = type { %struct.pmix_object_t, ptr, ptr, i32 }

@pmix_mca_base_var_initialized = global i8 0, align 1
@pmix_mca_base_vars = internal global %struct.pmix_pointer_array_t zeroinitializer, align 8
@.str.40 = private unnamed_addr constant [8 x i8] c"%s%s=%s\00", align 1
@.str.41 = private unnamed_addr constant [20 x i8] c"%sSOURCE_%s=FILE:%s\00", align 1
@.str.42 = private unnamed_addr constant [25 x i8] c"%sSOURCE_%s=COMMAND_LINE\00", align 1

; Function Attrs: nounwind uwtable
define internal ptr @pmix_mca_base_var_source_file(ptr noundef %0) #0 {
  %2 = alloca ptr, align 8
  %3 = alloca ptr, align 8
  %4 = alloca ptr, align 8
  %5 = alloca i32, align 4
  store ptr %0, ptr %3, align 8, !tbaa !3
  call void @llvm.lifetime.start.p0(i64 8, ptr %4) #15
  %6 = load ptr, ptr %3, align 8, !tbaa !3
  %7 = getelementptr inbounds nuw %struct.pmix_mca_base_var_t, ptr %6, i32 0, i32 17
  %8 = load ptr, ptr %7, align 8, !tbaa !79
  store ptr %8, ptr %4, align 8, !tbaa !40
  %9 = load ptr, ptr %3, align 8, !tbaa !3
  %10 = getelementptr inbounds nuw %struct.pmix_mca_base_var_t, ptr %9, i32 0, i32 13
  %11 = load ptr, ptr %10, align 8, !tbaa !80
  %12 = icmp ne ptr null, %11
  br i1 %12, label %13, label %17

13:                                               ; preds = %1
  %14 = load ptr, ptr %3, align 8, !tbaa !3
  %15 = getelementptr inbounds nuw %struct.pmix_mca_base_var_t, ptr %14, i32 0, i32 13
  %16 = load ptr, ptr %15, align 8, !tbaa !80
  store ptr %16, ptr %2, align 8
  store i32 1, ptr %5, align 4
  br label %25

17:                                               ; preds = %1
  %18 = load ptr, ptr %4, align 8, !tbaa !40
  %19 = icmp ne ptr %18, null
  br i1 %19, label %20, label %24

20:                                               ; preds = %17
  %21 = load ptr, ptr %4, align 8, !tbaa !40
  %22 = getelementptr inbounds nuw %struct.pmix_mca_base_var_file_value_t, ptr %21, i32 0, i32 3
  %23 = load ptr, ptr %22, align 8, !tbaa !81
  store ptr %23, ptr %2, align 8
  store i32 1, ptr %5, align 4
  br label %25

24:                                               ; preds = %17
  store ptr null, ptr %2, align 8
  store i32 1, ptr %5, align 4
  br label %25

25:                                               ; preds = %24, %20, %13
  call void @llvm.lifetime.end.p0(i64 8, ptr %4) #15
  %26 = load ptr, ptr %2, align 8
  ret ptr %26
}

; Function Attrs: inlinehint nounwind uwtable
define internal ptr @pmix_pointer_array_get_item(ptr noundef %0, i32 noundef %1) #6 {
  %3 = alloca ptr, align 8
  %4 = alloca ptr, align 8
  %5 = alloca i32, align 4
  %6 = alloca ptr, align 8
  %7 = alloca i32, align 4
  store ptr %0, ptr %4, align 8, !tbaa !90
  store i32 %1, ptr %5, align 4, !tbaa !18
  call void @llvm.lifetime.start.p0(i64 8, ptr %6) #15
  %8 = load i32, ptr %5, align 4, !tbaa !18
  %9 = icmp sgt i32 0, %8
  br i1 %9, label %16, label %10

10:                                               ; preds = %2
  %11 = load ptr, ptr %4, align 8, !tbaa !90
  %12 = getelementptr inbounds nuw %struct.pmix_pointer_array_t, ptr %11, i32 0, i32 3
  %13 = load i32, ptr %12, align 8, !tbaa !92
  %14 = load i32, ptr %5, align 4, !tbaa !18
  %15 = icmp sle i32 %13, %14
  br label %16

16:                                               ; preds = %10, %2
  %17 = phi i1 [ true, %2 ], [ %15, %10 ]
  %18 = xor i1 %17, true
  %19 = xor i1 %18, true
  %20 = zext i1 %19 to i32
  %21 = sext i32 %20 to i64
  %22 = call i64 @llvm.expect.i64(i64 %21, i64 0)
  %23 = icmp ne i64 %22, 0
  br i1 %23, label %24, label %25

24:                                               ; preds = %16
  store ptr null, ptr %3, align 8
  store i32 1, ptr %7, align 4
  br label %34

25:                                               ; preds = %16
  %26 = load ptr, ptr %4, align 8, !tbaa !90
  %27 = getelementptr inbounds nuw %struct.pmix_pointer_array_t, ptr %26, i32 0, i32 7
  %28 = load ptr, ptr %27, align 8, !tbaa !95
  %29 = load i32, ptr %5, align 4, !tbaa !18
  %30 = sext i32 %29 to i64
  %31 = getelementptr inbounds ptr, ptr %28, i64 %30
  %32 = load ptr, ptr %31, align 8, !tbaa !65
  store ptr %32, ptr %6, align 8, !tbaa !65
  %33 = load ptr, ptr %6, align 8, !tbaa !65
  store ptr %33, ptr %3, align 8
  store i32 1, ptr %7, align 4
  br label %34

34:                                               ; preds = %25, %24
  call void @llvm.lifetime.end.p0(i64 8, ptr %6) #15
  %35 = load ptr, ptr %3, align 8
  ret ptr %35
}

; Function Attrs: inlinehint nounwind uwtable
define internal i32 @pmix_pointer_array_get_size(ptr noundef %0) #6 {
  %2 = alloca ptr, align 8
  store ptr %0, ptr %2, align 8, !tbaa !90
  %3 = load ptr, ptr %2, align 8, !tbaa !90
  %4 = getelementptr inbounds nuw %struct.pmix_pointer_array_t, ptr %3, i32 0, i32 3
  %5 = load i32, ptr %4, align 8, !tbaa !92
  ret i32 %5
}

; Function Attrs: nounwind uwtable
define i32 @pmix_mca_base_var_build_env(ptr noundef %0, ptr noundef %1) #0 {
  %3 = alloca i32, align 4
  %4 = alloca ptr, align 8
  %5 = alloca ptr, align 8
  %6 = alloca ptr, align 8
  %7 = alloca i64, align 8
  %8 = alloca i64, align 8
  %9 = alloca i32, align 4
  %10 = alloca i32, align 4
  %11 = alloca ptr, align 8
  %12 = alloca ptr, align 8
  store ptr %0, ptr %4, align 8, !tbaa !87
  store ptr %1, ptr %5, align 8, !tbaa !85
  call void @llvm.lifetime.start.p0(i64 8, ptr %6) #15
  call void @llvm.lifetime.start.p0(i64 8, ptr %7) #15
  call void @llvm.lifetime.start.p0(i64 8, ptr %8) #15
  call void @llvm.lifetime.start.p0(i64 4, ptr %9) #15
  store i32 0, ptr %9, align 4, !tbaa !18
  %13 = load i8, ptr @pmix_mca_base_var_initialized, align 1, !tbaa !54, !range !30, !noundef !31
  %14 = trunc i8 %13 to i1
  br i1 %14, label %16, label %15

15:                                               ; preds = %2
  store i32 -1, ptr %3, align 4
  store i32 1, ptr %10, align 4
  br label %133

16:                                               ; preds = %2
  %17 = call i32 @pmix_pointer_array_get_size(ptr noundef @pmix_mca_base_vars)
  %18 = sext i32 %17 to i64
  store i64 %18, ptr %8, align 8, !tbaa !50
  store i64 0, ptr %7, align 8, !tbaa !50
  br label %19

19:                                               ; preds = %114, %16
  %20 = load i64, ptr %7, align 8, !tbaa !50
  %21 = load i64, ptr %8, align 8, !tbaa !50
  %22 = icmp ult i64 %20, %21
  br i1 %22, label %23, label %117

23:                                               ; preds = %19
  call void @llvm.lifetime.start.p0(i64 8, ptr %11) #15
  call void @llvm.lifetime.start.p0(i64 8, ptr %12) #15
  store ptr null, ptr %12, align 8, !tbaa !47
  %24 = load i64, ptr %7, align 8, !tbaa !50
  %25 = trunc i64 %24 to i32
  %26 = call ptr @pmix_pointer_array_get_item(ptr noundef @pmix_mca_base_vars, i32 noundef %25)
  store ptr %26, ptr %6, align 8, !tbaa !3
  %27 = load ptr, ptr %6, align 8, !tbaa !3
  %28 = icmp eq ptr null, %27
  br i1 %28, label %29, label %30

29:                                               ; preds = %23
  store i32 4, ptr %10, align 4
  br label %111

30:                                               ; preds = %23
  %31 = load ptr, ptr %6, align 8, !tbaa !3
  %32 = getelementptr inbounds nuw %struct.pmix_mca_base_var_t, ptr %31, i32 0, i32 10
  %33 = load i32, ptr %32, align 4, !tbaa !75
  %34 = icmp eq i32 0, %33
  br i1 %34, label %35, label %36

35:                                               ; preds = %30
  store i32 4, ptr %10, align 4
  br label %111

36:                                               ; preds = %30
  %37 = load ptr, ptr %6, align 8, !tbaa !3
  %38 = getelementptr inbounds nuw %struct.pmix_mca_base_var_t, ptr %37, i32 0, i32 3
  %39 = load i32, ptr %38, align 8, !tbaa !8
  %40 = icmp eq i32 5, %39
  br i1 %40, label %46, label %41

41:                                               ; preds = %36
  %42 = load ptr, ptr %6, align 8, !tbaa !3
  %43 = getelementptr inbounds nuw %struct.pmix_mca_base_var_t, ptr %42, i32 0, i32 3
  %44 = load i32, ptr %43, align 8, !tbaa !8
  %45 = icmp eq i32 6, %44
  br i1 %45, label %46, label %53

46:                                               ; preds = %41, %36
  %47 = load ptr, ptr %6, align 8, !tbaa !3
  %48 = getelementptr inbounds nuw %struct.pmix_mca_base_var_t, ptr %47, i32 0, i32 16
  %49 = load ptr, ptr %48, align 8, !tbaa !23
  %50 = load ptr, ptr %49, align 8, !tbaa !24
  %51 = icmp eq ptr null, %50
  br i1 %51, label %52, label %53

52:                                               ; preds = %46
  store i32 4, ptr %10, align 4
  br label %111

53:                                               ; preds = %46, %41
  %54 = load ptr, ptr %6, align 8, !tbaa !3
  %55 = call i32 @var_value_string(ptr noundef %54, ptr noundef %11)
  store i32 %55, ptr %9, align 4, !tbaa !18
  %56 = load i32, ptr %9, align 4, !tbaa !18
  %57 = icmp ne i32 0, %56
  br i1 %57, label %58, label %59

58:                                               ; preds = %53
  store i32 5, ptr %10, align 4
  br label %111

59:                                               ; preds = %53
  %60 = load ptr, ptr %6, align 8, !tbaa !3
  %61 = getelementptr inbounds nuw %struct.pmix_mca_base_var_t, ptr %60, i32 0, i32 7
  %62 = load ptr, ptr %61, align 8, !tbaa !38
  %63 = load ptr, ptr %6, align 8, !tbaa !3
  %64 = getelementptr inbounds nuw %struct.pmix_mca_base_var_t, ptr %63, i32 0, i32 5
  %65 = load ptr, ptr %64, align 8, !tbaa !36
  %66 = load ptr, ptr %11, align 8, !tbaa !47
  %67 = call i32 (ptr, ptr, ...) @asprintf(ptr noundef %12, ptr noundef @.str.40, ptr noundef %62, ptr noundef %65, ptr noundef %66) #15
  store i32 %67, ptr %9, align 4, !tbaa !18
  %68 = load ptr, ptr %11, align 8, !tbaa !47
  call void @free(ptr noundef %68) #15
  %69 = load i32, ptr %9, align 4, !tbaa !18
  %70 = icmp sgt i32 0, %69
  br i1 %70, label %71, label %72

71:                                               ; preds = %59
  store i32 5, ptr %10, align 4
  br label %111

72:                                               ; preds = %59
  %73 = load ptr, ptr %5, align 8, !tbaa !85
  %74 = load ptr, ptr %4, align 8, !tbaa !87
  %75 = load ptr, ptr %12, align 8, !tbaa !47
  %76 = call i32 @pmix_argv_append(ptr noundef %73, ptr noundef %74, ptr noundef %75)
  %77 = load ptr, ptr %12, align 8, !tbaa !47
  call void @free(ptr noundef %77) #15
  store i32 0, ptr %9, align 4, !tbaa !18
  %78 = load ptr, ptr %6, align 8, !tbaa !3
  %79 = getelementptr inbounds nuw %struct.pmix_mca_base_var_t, ptr %78, i32 0, i32 10
  %80 = load i32, ptr %79, align 4, !tbaa !75
  switch i32 %80, label %101 [
    i32 3, label %81
    i32 5, label %81
    i32 1, label %91
    i32 2, label %99
    i32 4, label %99
    i32 0, label %99
    i32 6, label %100
  ]

81:                                               ; preds = %72, %72
  %82 = load ptr, ptr %6, align 8, !tbaa !3
  %83 = getelementptr inbounds nuw %struct.pmix_mca_base_var_t, ptr %82, i32 0, i32 7
  %84 = load ptr, ptr %83, align 8, !tbaa !38
  %85 = load ptr, ptr %6, align 8, !tbaa !3
  %86 = getelementptr inbounds nuw %struct.pmix_mca_base_var_t, ptr %85, i32 0, i32 5
  %87 = load ptr, ptr %86, align 8, !tbaa !36
  %88 = load ptr, ptr %6, align 8, !tbaa !3
  %89 = call ptr @pmix_mca_base_var_source_file(ptr noundef %88)
  %90 = call i32 (ptr, ptr, ...) @asprintf(ptr noundef %12, ptr noundef @.str.41, ptr noundef %84, ptr noundef %87, ptr noundef %89) #15
  store i32 %90, ptr %9, align 4, !tbaa !18
  br label %101

91:                                               ; preds = %72
  %92 = load ptr, ptr %6, align 8, !tbaa !3
  %93 = getelementptr inbounds nuw %struct.pmix_mca_base_var_t, ptr %92, i32 0, i32 7
  %94 = load ptr, ptr %93, align 8, !tbaa !38
  %95 = load ptr, ptr %6, align 8, !tbaa !3
  %96 = getelementptr inbounds nuw %struct.pmix_mca_base_var_t, ptr %95, i32 0, i32 5
  %97 = load ptr, ptr %96, align 8, !tbaa !36
  %98 = call i32 (ptr, ptr, ...) @asprintf(ptr noundef %12, ptr noundef @.str.42, ptr noundef %94, ptr noundef %97) #15
  store i32 %98, ptr %9, align 4, !tbaa !18
  br label %101

99:                                               ; preds = %72, %72, %72
  store ptr null, ptr %12, align 8, !tbaa !47
  br label %101

100:                                              ; preds = %72
  store i32 5, ptr %10, align 4
  br label %111

101:                                              ; preds = %72, %99, %91, %81
  %102 = load ptr, ptr %12, align 8, !tbaa !47
  %103 = icmp ne ptr null, %102
  br i1 %103, label %104, label %110

104:                                              ; preds = %101
  %105 = load ptr, ptr %5, align 8, !tbaa !85
  %106 = load ptr, ptr %4, align 8, !tbaa !87
  %107 = load ptr, ptr %12, align 8, !tbaa !47
  %108 = call i32 @pmix_argv_append(ptr noundef %105, ptr noundef %106, ptr noundef %107)
  %109 = load ptr, ptr %12, align 8, !tbaa !47
  call void @free(ptr noundef %109) #15
  br label %110

110:                                              ; preds = %104, %101
  store i32 0, ptr %10, align 4
  br label %111

111:                                              ; preds = %100, %71, %58, %110, %52, %35, %29
  call void @llvm.lifetime.end.p0(i64 8, ptr %12) #15
  call void @llvm.lifetime.end.p0(i64 8, ptr %11) #15
  %112 = load i32, ptr %10, align 4
  switch i32 %112, label %133 [
    i32 0, label %113
    i32 4, label %114
    i32 5, label %123
  ]

113:                                              ; preds = %111
  br label %114

114:                                              ; preds = %113, %111
  %115 = load i64, ptr %7, align 8, !tbaa !50
  %116 = add i64 %115, 1
  store i64 %116, ptr %7, align 8, !tbaa !50
  br label %19, !llvm.loop !89

117:                                              ; preds = %19
  %118 = load i32, ptr %9, align 4, !tbaa !18
  %119 = icmp slt i32 %118, 0
  br i1 %119, label %120, label %121

120:                                              ; preds = %117
  store i32 -29, ptr %9, align 4, !tbaa !18
  br label %121

121:                                              ; preds = %120, %117
  %122 = load i32, ptr %9, align 4, !tbaa !18
  store i32 %122, ptr %3, align 4
  store i32 1, ptr %10, align 4
  br label %133

123:                                              ; preds = %111
  %124 = load ptr, ptr %5, align 8, !tbaa !85
  %125 = load i32, ptr %124, align 4, !tbaa !18
  %126 = icmp sgt i32 %125, 0
  br i1 %126, label %127, label %132

127:                                              ; preds = %123
  %128 = load ptr, ptr %4, align 8, !tbaa !87
  %129 = load ptr, ptr %128, align 8, !tbaa !48
  call void @PMIx_Argv_free(ptr noundef %129)
  %130 = load ptr, ptr %5, align 8, !tbaa !85
  store i32 0, ptr %130, align 4, !tbaa !18
  %131 = load ptr, ptr %4, align 8, !tbaa !87
  store ptr null, ptr %131, align 8, !tbaa !48
  br label %132

132:                                              ; preds = %127, %123
  store i32 -46, ptr %3, align 4
  store i32 1, ptr %10, align 4
  br label %133

133:                                              ; preds = %132, %121, %111, %15
  call void @llvm.lifetime.end.p0(i64 4, ptr %9) #15
  call void @llvm.lifetime.end.p0(i64 8, ptr %8) #15
  call void @llvm.lifetime.end.p0(i64 8, ptr %7) #15
  call void @llvm.lifetime.end.p0(i64 8, ptr %6) #15
  %134 = load i32, ptr %3, align 4
  ret i32 %134
}