; Function Attrs: nounwind uwtable
define noundef i32 @pmix_mca_base_var_build_env(ptr noundef %0, ptr noundef %1) local_unnamed_addr #0 {
  %3 = alloca ptr, align 8
  %4 = alloca ptr, align 8
  %5 = load i8, ptr @pmix_mca_base_var_initialized, align 1, !tbaa !54, !range !36, !noundef !37
  %6 = trunc nuw i8 %5 to i1
  br i1 %6, label %7, label %._crit_edge.thread

7:                                                ; preds = %2
  %8 = load i32, ptr getelementptr inbounds nuw (i8, ptr @pmix_mca_base_vars, i64 128), align 8, !tbaa !76
  %9 = sext i32 %8 to i64
  %.not52 = icmp eq i32 %8, 0
  br i1 %.not52, label %._crit_edge.thread, label %.lr.ph

.lr.ph:                                           ; preds = %7, %pmix_pointer_array_get_item.exit.thread
  %.03151 = phi i32 [ %.1.ph.fr, %pmix_pointer_array_get_item.exit.thread ], [ 0, %7 ]
  %.03350 = phi i64 [ %66, %pmix_pointer_array_get_item.exit.thread ], [ 0, %7 ]
  call void @llvm.lifetime.start.p0(i64 8, ptr nonnull %3) #25
  call void @llvm.lifetime.start.p0(i64 8, ptr nonnull %4) #25
  store ptr null, ptr %4, align 8, !tbaa !51
  %10 = trunc i64 %.03350 to i32
  %11 = icmp slt i32 %10, 0
  %12 = load i32, ptr getelementptr inbounds nuw (i8, ptr @pmix_mca_base_vars, i64 128), align 8
  %13 = icmp sle i32 %12, %10
  %14 = select i1 %11, i1 true, i1 %13, !prof !77
  br i1 %14, label %pmix_pointer_array_get_item.exit.thread, label %pmix_pointer_array_get_item.exit, !prof !77

pmix_pointer_array_get_item.exit:                 ; preds = %.lr.ph
  %15 = load ptr, ptr getelementptr inbounds nuw (i8, ptr @pmix_mca_base_vars, i64 152), align 8, !tbaa !58
  %16 = and i64 %.03350, 2147483647
  %17 = getelementptr inbounds nuw ptr, ptr %15, i64 %16
  %18 = load ptr, ptr %17, align 8, !tbaa !22
  %19 = icmp eq ptr %18, null
  br i1 %19, label %pmix_pointer_array_get_item.exit.thread, label %20

20:                                               ; preds = %pmix_pointer_array_get_item.exit
  %21 = getelementptr inbounds nuw i8, ptr %18, i64 324
  %22 = load i32, ptr %21, align 4, !tbaa !70
  %23 = icmp eq i32 %22, 0
  br i1 %23, label %pmix_pointer_array_get_item.exit.thread, label %24

24:                                               ; preds = %20
  %25 = getelementptr inbounds nuw i8, ptr %18, i64 128
  %26 = load i32, ptr %25, align 8, !tbaa !3
  %.off = add i32 %26, -5
  %switch = icmp ult i32 %.off, 2
  br i1 %switch, label %27, label %32

27:                                               ; preds = %24
  %28 = getelementptr inbounds nuw i8, ptr %18, i64 368
  %29 = load ptr, ptr %28, align 8, !tbaa !29
  %30 = load ptr, ptr %29, align 8, !tbaa !30
  %31 = icmp eq ptr %30, null
  br i1 %31, label %pmix_pointer_array_get_item.exit.thread, label %32

32:                                               ; preds = %24, %27
  %33 = call fastcc i32 @var_value_string(ptr noundef nonnull %18, ptr noundef %3)
  %.not = icmp eq i32 %33, 0
  br i1 %.not, label %34, label %68

34:                                               ; preds = %32
  %35 = getelementptr inbounds nuw i8, ptr %18, i64 160
  %36 = load ptr, ptr %35, align 8, !tbaa !44
  %37 = getelementptr inbounds nuw i8, ptr %18, i64 144
  %38 = load ptr, ptr %37, align 8, !tbaa !42
  %39 = load ptr, ptr %3, align 8, !tbaa !51
  %40 = call i32 (ptr, ptr, ...) @asprintf(ptr noundef nonnull %4, ptr noundef nonnull @.str.40, ptr noundef %36, ptr noundef %38, ptr noundef %39) #25
  %41 = load ptr, ptr %3, align 8, !tbaa !51
  call void @free(ptr noundef %41) #25
  %42 = icmp slt i32 %40, 0
  br i1 %42, label %68, label %43

43:                                               ; preds = %34
  %44 = load ptr, ptr %4, align 8, !tbaa !51
  %45 = call i32 @pmix_argv_append(ptr noundef %1, ptr noundef %0, ptr noundef %44) #25
  %46 = load ptr, ptr %4, align 8, !tbaa !51
  call void @free(ptr noundef %46) #25
  %47 = load i32, ptr %21, align 4, !tbaa !70
  switch i32 %47, label %62 [
    i32 3, label %48
    i32 5, label %48
    i32 1, label %58
    i32 2, label %pmix_pointer_array_get_item.exit.thread
    i32 4, label %pmix_pointer_array_get_item.exit.thread
    i32 0, label %pmix_pointer_array_get_item.exit.thread
    i32 6, label %68
  ]

48:                                               ; preds = %43, %43
  %49 = load ptr, ptr %35, align 8, !tbaa !44
  %50 = load ptr, ptr %37, align 8, !tbaa !42
  %51 = getelementptr i8, ptr %18, i64 344
  %.val = load ptr, ptr %51, align 8, !tbaa !71
  %52 = getelementptr i8, ptr %18, i64 376
  %.val40 = load ptr, ptr %52, align 8, !tbaa !72
  %.not.i = icmp eq ptr %.val, null
  br i1 %.not.i, label %53, label %pmix_mca_base_var_source_file.exit

53:                                               ; preds = %48
  %.not8.i = icmp eq ptr %.val40, null
  br i1 %.not8.i, label %pmix_mca_base_var_source_file.exit, label %54

54:                                               ; preds = %53
  %55 = getelementptr inbounds nuw i8, ptr %.val40, i64 160
  %56 = load ptr, ptr %55, align 8, !tbaa !73
  br label %pmix_mca_base_var_source_file.exit

pmix_mca_base_var_source_file.exit:               ; preds = %48, %53, %54
  %.0.i41 = phi ptr [ %56, %54 ], [ %.val, %48 ], [ null, %53 ]
  %57 = call i32 (ptr, ptr, ...) @asprintf(ptr noundef nonnull %4, ptr noundef nonnull @.str.41, ptr noundef %49, ptr noundef %50, ptr noundef %.0.i41) #25
  br label %62

58:                                               ; preds = %43
  %59 = load ptr, ptr %35, align 8, !tbaa !44
  %60 = load ptr, ptr %37, align 8, !tbaa !42
  %61 = call i32 (ptr, ptr, ...) @asprintf(ptr noundef nonnull %4, ptr noundef nonnull @.str.42, ptr noundef %59, ptr noundef %60) #25
  br label %62

62:                                               ; preds = %58, %pmix_mca_base_var_source_file.exit, %43
  %.2.ph = phi i32 [ %57, %pmix_mca_base_var_source_file.exit ], [ %61, %58 ], [ 0, %43 ]
  %.pr = load ptr, ptr %4, align 8, !tbaa !51
  %.not39 = icmp eq ptr %.pr, null
  br i1 %.not39, label %pmix_pointer_array_get_item.exit.thread, label %63

63:                                               ; preds = %62
  %64 = call i32 @pmix_argv_append(ptr noundef %1, ptr noundef %0, ptr noundef nonnull %.pr) #25
  %65 = load ptr, ptr %4, align 8, !tbaa !51
  call void @free(ptr noundef %65) #25
  br label %pmix_pointer_array_get_item.exit.thread

pmix_pointer_array_get_item.exit.thread:          ; preds = %43, %43, %43, %.lr.ph, %pmix_pointer_array_get_item.exit, %20, %27, %63, %62
  %.1.ph = phi i32 [ %.2.ph, %62 ], [ %.2.ph, %63 ], [ %.03151, %27 ], [ %.03151, %20 ], [ %.03151, %pmix_pointer_array_get_item.exit ], [ %.03151, %.lr.ph ], [ 0, %43 ], [ 0, %43 ], [ 0, %43 ]
  %.1.ph.fr = freeze i32 %.1.ph
  call void @llvm.lifetime.end.p0(i64 8, ptr nonnull %4) #25
  call void @llvm.lifetime.end.p0(i64 8, ptr nonnull %3) #25
  %66 = add nuw i64 %.03350, 1
  %exitcond.not = icmp eq i64 %66, %9
  br i1 %exitcond.not, label %._crit_edge, label %.lr.ph, !llvm.loop !78

._crit_edge:                                      ; preds = %pmix_pointer_array_get_item.exit.thread
  %67 = icmp slt i32 %.1.ph.fr, 0
  %spec.select = select i1 %67, i32 -29, i32 %.1.ph.fr
  br label %._crit_edge.thread

68:                                               ; preds = %32, %34, %43
  call void @llvm.lifetime.end.p0(i64 8, ptr nonnull %4) #25
  call void @llvm.lifetime.end.p0(i64 8, ptr nonnull %3) #25
  %69 = load i32, ptr %1, align 4, !tbaa !16
  %70 = icmp sgt i32 %69, 0
  br i1 %70, label %71, label %._crit_edge.thread

71:                                               ; preds = %68
  %72 = load ptr, ptr %0, align 8, !tbaa !64
  call void @PMIx_Argv_free(ptr noundef %72) #25
  store i32 0, ptr %1, align 4, !tbaa !16
  store ptr null, ptr %0, align 8, !tbaa !64
  br label %._crit_edge.thread

._crit_edge.thread:                               ; preds = %._crit_edge, %7, %68, %71, %2
  %.032 = phi i32 [ -1, %2 ], [ -46, %71 ], [ -46, %68 ], [ 0, %7 ], [ %spec.select, %._crit_edge ]
  ret i32 %.032
}